target datalayout = "e-m:e-p270:32:32-p271:32:32-p272:64:64-i64:64-i128:128-f80:128-n8:16:32:64-S128"
target triple = "x86_64-pc-linux-gnu"

%struct.sockaddr_un = type { i16, [108 x i8] }
%struct.sockaddr_storage = type { i16, [118 x i8], i64 }

@.str = private unnamed_addr constant [4 x i8] c"???\00", align 1
@.str.1 = private unnamed_addr constant [3 x i8] c"%s\00", align 1
@.str.2 = private unnamed_addr constant [8 x i8] c"[local]\00", align 1
@.str.3 = private unnamed_addr constant [4 x i8] c"@%s\00", align 1

; Function Attrs: nounwind uwtable
define internal i32 @getnameinfo_unix(ptr noundef %0, i32 noundef %1, ptr noundef %2, i32 noundef %3, ptr noundef %4, i32 noundef %5, i32 noundef %6) #0 {
  %8 = alloca i32, align 4
  %9 = alloca ptr, align 8
  %10 = alloca i32, align 4
  %11 = alloca ptr, align 8
  %12 = alloca i32, align 4
  %13 = alloca ptr, align 8
  %14 = alloca i32, align 4
  %15 = alloca i32, align 4
  %16 = alloca i32, align 4
  %17 = alloca i32, align 4
  store ptr %0, ptr %9, align 8
  store i32 %1, ptr %10, align 4
  store ptr %2, ptr %11, align 8
  store i32 %3, ptr %12, align 4
  store ptr %4, ptr %13, align 8
  store i32 %5, ptr %14, align 4
  store i32 %6, ptr %15, align 4
  call void @llvm.lifetime.start.p0(i64 4, ptr %16) #8
  %18 = load ptr, ptr %9, align 8
  %19 = icmp eq ptr %18, null
  br i1 %19, label %32, label %20

20:                                               ; preds = %7
  %21 = load ptr, ptr %9, align 8
  %22 = getelementptr inbounds nuw %struct.sockaddr_un, ptr %21, i32 0, i32 0
  %23 = load i16, ptr %22, align 2
  %24 = zext i16 %23 to i32
  %25 = icmp ne i32 %24, 1
  br i1 %25, label %32, label %26

26:                                               ; preds = %20
  %27 = load ptr, ptr %11, align 8
  %28 = icmp eq ptr %27, null
  br i1 %28, label %29, label %33

29:                                               ; preds = %26
  %30 = load ptr, ptr %13, align 8
  %31 = icmp eq ptr %30, null
  br i1 %31, label %32, label %33

32:                                               ; preds = %29, %20, %7
  store i32 -4, ptr %8, align 4
  store i32 1, ptr %17, align 4
  br label %93

33:                                               ; preds = %29, %26
  %34 = load ptr, ptr %11, align 8
  %35 = icmp ne ptr %34, null
  br i1 %35, label %36, label %49

36:                                               ; preds = %33
  %37 = load ptr, ptr %11, align 8
  %38 = load i32, ptr %12, align 4
  %39 = sext i32 %38 to i64
  %40 = call i32 (ptr, i64, ptr, ...) @pg_snprintf(ptr noundef %37, i64 noundef %39, ptr noundef @.str.1, ptr noundef @.str.2)
  store i32 %40, ptr %16, align 4
  %41 = load i32, ptr %16, align 4
  %42 = icmp slt i32 %41, 0
  br i1 %42, label %47, label %43

43:                                               ; preds = %36
  %44 = load i32, ptr %16, align 4
  %45 = load i32, ptr %12, align 4
  %46 = icmp sge i32 %44, %45
  br i1 %46, label %47, label %48

47:                                               ; preds = %43, %36
  store i32 -10, ptr %8, align 4
  store i32 1, ptr %17, align 4
  br label %93

48:                                               ; preds = %43
  br label %49

49:                                               ; preds = %48, %33
  %50 = load ptr, ptr %13, align 8
  %51 = icmp ne ptr %50, null
  br i1 %51, label %52, label %92

52:                                               ; preds = %49
  %53 = load ptr, ptr %9, align 8
  %54 = getelementptr inbounds nuw %struct.sockaddr_un, ptr %53, i32 0, i32 1
  %55 = getelementptr inbounds [108 x i8], ptr %54, i64 0, i64 0
  %56 = load i8, ptr %55, align 2
  %57 = sext i8 %56 to i32
  %58 = icmp eq i32 %57, 0
  br i1 %58, label %59, label %75

59:                                               ; preds = %52
  %60 = load ptr, ptr %9, align 8
  %61 = getelementptr inbounds nuw %struct.sockaddr_un, ptr %60, i32 0, i32 1
  %62 = getelementptr inbounds [108 x i8], ptr %61, i64 0, i64 1
  %63 = load i8, ptr %62, align 1
  %64 = sext i8 %63 to i32
  %65 = icmp ne i32 %64, 0
  br i1 %65, label %66, label %75

66:                                               ; preds = %59
  %67 = load ptr, ptr %13, align 8
  %68 = load i32, ptr %14, align 4
  %69 = sext i32 %68 to i64
  %70 = load ptr, ptr %9, align 8
  %71 = getelementptr inbounds nuw %struct.sockaddr_un, ptr %70, i32 0, i32 1
  %72 = getelementptr inbounds [108 x i8], ptr %71, i64 0, i64 0
  %73 = getelementptr inbounds i8, ptr %72, i64 1
  %74 = call i32 (ptr, i64, ptr, ...) @pg_snprintf(ptr noundef %67, i64 noundef %69, ptr noundef @.str.3, ptr noundef %73)
  store i32 %74, ptr %16, align 4
  br label %83

75:                                               ; preds = %59, %52
  %76 = load ptr, ptr %13, align 8
  %77 = load i32, ptr %14, align 4
  %78 = sext i32 %77 to i64
  %79 = load ptr, ptr %9, align 8
  %80 = getelementptr inbounds nuw %struct.sockaddr_un, ptr %79, i32 0, i32 1
  %81 = getelementptr inbounds [108 x i8], ptr %80, i64 0, i64 0
  %82 = call i32 (ptr, i64, ptr, ...) @pg_snprintf(ptr noundef %76, i64 noundef %78, ptr noundef @.str.1, ptr noundef %81)
  store i32 %82, ptr %16, align 4
  br label %83

83:                                               ; preds = %75, %66
  %84 = load i32, ptr %16, align 4
  %85 = icmp slt i32 %84, 0
  br i1 %85, label %90, label %86

86:                                               ; preds = %83
  %87 = load i32, ptr %16, align 4
  %88 = load i32, ptr %14, align 4
  %89 = icmp sge i32 %87, %88
  br i1 %89, label %90, label %91

90:                                               ; preds = %86, %83
  store i32 -10, ptr %8, align 4
  store i32 1, ptr %17, align 4
  br label %93

91:                                               ; preds = %86
  br label %92

92:                                               ; preds = %91, %49
  store i32 0, ptr %8, align 4
  store i32 1, ptr %17, align 4
  br label %93

93:                                               ; preds = %92, %90, %47, %32
  call void @llvm.lifetime.end.p0(i64 4, ptr %16) #8
  %94 = load i32, ptr %8, align 4
  ret i32 %94
}

; Function Attrs: nounwind uwtable
define dso_local i32 @pg_getnameinfo_all(ptr noundef %0, i32 noundef %1, ptr noundef %2, i32 noundef %3, ptr noundef %4, i32 noundef %5, i32 noundef %6) #0 {
  %8 = alloca ptr, align 8
  %9 = alloca i32, align 4
  %10 = alloca ptr, align 8
  %11 = alloca i32, align 4
  %12 = alloca ptr, align 8
  %13 = alloca i32, align 4
  %14 = alloca i32, align 4
  %15 = alloca i32, align 4
  store ptr %0, ptr %8, align 8
  store i32 %1, ptr %9, align 4
  store ptr %2, ptr %10, align 8
  store i32 %3, ptr %11, align 4
  store ptr %4, ptr %12, align 8
  store i32 %5, ptr %13, align 4
  store i32 %6, ptr %14, align 4
  call void @llvm.lifetime.start.p0(i64 4, ptr %15) #8
  %16 = load ptr, ptr %8, align 8
  %17 = icmp ne ptr %16, null
  br i1 %17, label %18, label %33

18:                                               ; preds = %7
  %19 = load ptr, ptr %8, align 8
  %20 = getelementptr inbounds nuw %struct.sockaddr_storage, ptr %19, i32 0, i32 0
  %21 = load i16, ptr %20, align 8
  %22 = zext i16 %21 to i32
  %23 = icmp eq i32 %22, 1
  br i1 %23, label %24, label %33

24:                                               ; preds = %18
  %25 = load ptr, ptr %8, align 8
  %26 = load i32, ptr %9, align 4
  %27 = load ptr, ptr %10, align 8
  %28 = load i32, ptr %11, align 4
  %29 = load ptr, ptr %12, align 8
  %30 = load i32, ptr %13, align 4
  %31 = load i32, ptr %14, align 4
  %32 = call i32 @getnameinfo_unix(ptr noundef %25, i32 noundef %26, ptr noundef %27, i32 noundef %28, ptr noundef %29, i32 noundef %30, i32 noundef %31)
  store i32 %32, ptr %15, align 4
  br label %42

33:                                               ; preds = %18, %7
  %34 = load ptr, ptr %8, align 8
  %35 = load i32, ptr %9, align 4
  %36 = load ptr, ptr %10, align 8
  %37 = load i32, ptr %11, align 4
  %38 = load ptr, ptr %12, align 8
  %39 = load i32, ptr %13, align 4
  %40 = load i32, ptr %14, align 4
  %41 = call i32 @getnameinfo(ptr noundef %34, i32 noundef %35, ptr noundef %36, i32 noundef %37, ptr noundef %38, i32 noundef %39, i32 noundef %40)
  store i32 %41, ptr %15, align 4
  br label %42

42:                                               ; preds = %33, %24
  %43 = load i32, ptr %15, align 4
  %44 = icmp ne i32 %43, 0
  br i1 %44, label %45, label %62

45:                                               ; preds = %42
  %46 = load ptr, ptr %10, align 8
  %47 = icmp ne ptr %46, null
  br i1 %47, label %48, label %53

48:                                               ; preds = %45
  %49 = load ptr, ptr %10, align 8
  %50 = load i32, ptr %11, align 4
  %51 = sext i32 %50 to i64
  %52 = call i64 @strlcpy(ptr noundef %49, ptr noundef @.str, i64 noundef %51)
  br label %53

53:                                               ; preds = %48, %45
  %54 = load ptr, ptr %12, align 8
  %55 = icmp ne ptr %54, null
  br i1 %55, label %56, label %61

56:                                               ; preds = %53
  %57 = load ptr, ptr %12, align 8
  %58 = load i32, ptr %13, align 4
  %59 = sext i32 %58 to i64
  %60 = call i64 @strlcpy(ptr noundef %57, ptr noundef @.str, i64 noundef %59)
  br label %61

61:                                               ; preds = %56, %53
  br label %62

62:                                               ; preds = %61, %42
  %63 = load i32, ptr %15, align 4
  call void @llvm.lifetime.end.p0(i64 4, ptr %15) #8
  ret i32 %63
}