; Function Attrs: nounwind uwtable
define dso_local i32 @pg_getnameinfo_all(ptr noundef %0, i32 noundef %1, ptr noundef %2, i32 noundef %3, ptr noundef %4, i32 noundef %5, i32 noundef %6) local_unnamed_addr #0 {
  %.not = icmp eq ptr %0, null
  br i1 %.not, label %getnameinfo_unix.exit, label %8

8:                                                ; preds = %7
  %9 = load i16, ptr %0, align 8
  %10 = icmp eq i16 %9, 1
  br i1 %10, label %11, label %getnameinfo_unix.exit

11:                                               ; preds = %8
  %12 = icmp eq ptr %2, null
  %13 = icmp eq ptr %4, null
  %or.cond.i = and i1 %12, %13
  br i1 %or.cond.i, label %getnameinfo_unix.exit.thread33, label %14

14:                                               ; preds = %11
  br i1 %12, label %19, label %15

15:                                               ; preds = %14
  %16 = sext i32 %3 to i64
  %17 = tail call i32 (ptr, i64, ptr, ...) @pg_snprintf(ptr noundef nonnull %2, i64 noundef %16, ptr noundef nonnull @.str.1, ptr noundef nonnull @.str.2) #11
  %18 = icmp sgt i32 %17, -1
  %.not29.i = icmp slt i32 %17, %3
  %or.cond33.i = and i1 %18, %.not29.i
  br i1 %or.cond33.i, label %19, label %getnameinfo_unix.exit.thread.thread39

19:                                               ; preds = %15, %14
  br i1 %13, label %getnameinfo_unix.exit.thread33, label %20

20:                                               ; preds = %19
  %21 = getelementptr inbounds nuw i8, ptr %0, i64 2
  %22 = load i8, ptr %21, align 2
  %23 = icmp eq i8 %22, 0
  br i1 %23, label %24, label %30

24:                                               ; preds = %20
  %25 = getelementptr inbounds nuw i8, ptr %0, i64 3
  %26 = load i8, ptr %25, align 1
  %.not31.i = icmp eq i8 %26, 0
  br i1 %.not31.i, label %30, label %27

27:                                               ; preds = %24
  %28 = sext i32 %5 to i64
  %29 = tail call i32 (ptr, i64, ptr, ...) @pg_snprintf(ptr noundef nonnull %4, i64 noundef %28, ptr noundef nonnull @.str.3, ptr noundef nonnull %25) #11
  br label %33

30:                                               ; preds = %24, %20
  %31 = sext i32 %5 to i64
  %32 = tail call i32 (ptr, i64, ptr, ...) @pg_snprintf(ptr noundef nonnull %4, i64 noundef %31, ptr noundef nonnull @.str.1, ptr noundef nonnull %21) #11
  br label %33

33:                                               ; preds = %30, %27
  %.0.i = phi i32 [ %29, %27 ], [ %32, %30 ]
  %34 = icmp sgt i32 %.0.i, -1
  %.not32.i = icmp slt i32 %.0.i, %5
  %or.cond34.i = and i1 %34, %.not32.i
  br i1 %or.cond34.i, label %getnameinfo_unix.exit.thread33, label %getnameinfo_unix.exit.thread

getnameinfo_unix.exit:                            ; preds = %7, %8
  %35 = tail call i32 @getnameinfo(ptr noundef %0, i32 noundef %1, ptr noundef %2, i32 noundef %3, ptr noundef %4, i32 noundef %5, i32 noundef %6) #11
  %.not26 = icmp eq i32 %35, 0
  br i1 %.not26, label %getnameinfo_unix.exit.thread33, label %getnameinfo_unix.exit.thread

getnameinfo_unix.exit.thread:                     ; preds = %33, %getnameinfo_unix.exit
  %.031 = phi i32 [ %35, %getnameinfo_unix.exit ], [ -10, %33 ]
  %.not27 = icmp eq ptr %2, null
  br i1 %.not27, label %37, label %getnameinfo_unix.exit.thread.getnameinfo_unix.exit.thread.thread39_crit_edge

getnameinfo_unix.exit.thread.getnameinfo_unix.exit.thread.thread39_crit_edge: ; preds = %getnameinfo_unix.exit.thread
  %.pre = sext i32 %3 to i64
  br label %getnameinfo_unix.exit.thread.thread39

getnameinfo_unix.exit.thread.thread39:            ; preds = %getnameinfo_unix.exit.thread.getnameinfo_unix.exit.thread.thread39_crit_edge, %15
  %.pre-phi = phi i64 [ %.pre, %getnameinfo_unix.exit.thread.getnameinfo_unix.exit.thread.thread39_crit_edge ], [ %16, %15 ]
  %.03142 = phi i32 [ %.031, %getnameinfo_unix.exit.thread.getnameinfo_unix.exit.thread.thread39_crit_edge ], [ -10, %15 ]
  %36 = tail call i64 @strlcpy(ptr noundef nonnull %2, ptr noundef nonnull dereferenceable(1) @.str, i64 noundef %.pre-phi) #11
  br label %37

37:                                               ; preds = %getnameinfo_unix.exit.thread.thread39, %getnameinfo_unix.exit.thread
  %.03138 = phi i32 [ %.03142, %getnameinfo_unix.exit.thread.thread39 ], [ %.031, %getnameinfo_unix.exit.thread ]
  %.not28 = icmp eq ptr %4, null
  br i1 %.not28, label %getnameinfo_unix.exit.thread33, label %38

38:                                               ; preds = %37
  %39 = sext i32 %5 to i64
  %40 = tail call i64 @strlcpy(ptr noundef nonnull %4, ptr noundef nonnull dereferenceable(1) @.str, i64 noundef %39) #11
  br label %getnameinfo_unix.exit.thread33

getnameinfo_unix.exit.thread33:                   ; preds = %11, %33, %19, %37, %38, %getnameinfo_unix.exit
  %.032 = phi i32 [ %.03138, %37 ], [ %.03138, %38 ], [ 0, %getnameinfo_unix.exit ], [ 0, %19 ], [ 0, %33 ], [ -4, %11 ]
  ret i32 %.032
}